target datalayout = "e-m:e-p270:32:32-p271:32:32-p272:64:64-i64:64-i128:128-f80:128-n8:16:32:64-S128"
target triple = "x86_64-pc-linux-gnu"

%struct.tm = type { i32, i32, i32, i32, i32, i32, i32, i32, i32, i64, ptr }

@.str.25 = private unnamed_addr constant [18 x i8] c"Invalid purge set\00", align 1
@.str.26 = private unnamed_addr constant [30 x i8] c"invalid units from purge '%d'\00", align 1
@.str.27 = private unnamed_addr constant [52 x i8] c"Couldn't get localtime from first suspend start %ld\00", align 1
@.str.28 = private unnamed_addr constant [75 x i8] c"No known unit given for purge, we are guessing mistake and returning error\00", align 1

; Function Attrs: nounwind uwtable
define dso_local i64 @archive_setup_end_time(i64 noundef %0, i32 noundef %1) #0 {
  %3 = alloca i64, align 8
  %4 = alloca i64, align 8
  %5 = alloca i32, align 4
  %6 = alloca %struct.tm, align 8
  %7 = alloca i16, align 2
  %8 = alloca i32, align 4
  store i64 %0, ptr %4, align 8
  store i32 %1, ptr %5, align 4
  call void @llvm.lifetime.start.p0(i64 56, ptr %6) #8
  call void @llvm.lifetime.start.p0(i64 2, ptr %7) #8
  %9 = load i32, ptr %5, align 4
  %10 = icmp eq i32 %9, -2
  br i1 %10, label %11, label %13

11:                                               ; preds = %2
  %12 = call i32 (ptr, ...) @slurm_error(ptr noundef @.str.25)
  store i64 0, ptr %3, align 8
  store i32 1, ptr %8, align 4
  br label %82

13:                                               ; preds = %2
  %14 = load i32, ptr %5, align 4
  %15 = and i32 %14, 65535
  %16 = trunc i32 %15 to i16
  store i16 %16, ptr %7, align 2
  %17 = load i16, ptr %7, align 2
  %18 = sext i16 %17 to i32
  %19 = icmp slt i32 %18, 0
  br i1 %19, label %20, label %24

20:                                               ; preds = %13
  %21 = load i16, ptr %7, align 2
  %22 = sext i16 %21 to i32
  %23 = call i32 (ptr, ...) @slurm_error(ptr noundef @.str.26, i32 noundef %22)
  store i64 0, ptr %3, align 8
  store i32 1, ptr %8, align 4
  br label %82

24:                                               ; preds = %13
  %25 = call ptr @localtime_r(ptr noundef %4, ptr noundef %6) #8
  %26 = icmp ne ptr %25, null
  br i1 %26, label %30, label %27

27:                                               ; preds = %24
  %28 = load i64, ptr %4, align 8
  %29 = call i32 (ptr, ...) @slurm_error(ptr noundef @.str.27, i64 noundef %28)
  store i64 0, ptr %3, align 8
  store i32 1, ptr %8, align 4
  br label %82

30:                                               ; preds = %24
  %31 = getelementptr inbounds nuw %struct.tm, ptr %6, i32 0, i32 0
  store i32 0, ptr %31, align 8
  %32 = getelementptr inbounds nuw %struct.tm, ptr %6, i32 0, i32 1
  store i32 0, ptr %32, align 4
  %33 = load i32, ptr %5, align 4
  %34 = icmp ne i32 %33, -2
  br i1 %34, label %35, label %45

35:                                               ; preds = %30
  %36 = load i32, ptr %5, align 4
  %37 = and i32 %36, 65536
  %38 = icmp ne i32 %37, 0
  br i1 %38, label %39, label %45

39:                                               ; preds = %35
  %40 = load i16, ptr %7, align 2
  %41 = sext i16 %40 to i32
  %42 = getelementptr inbounds nuw %struct.tm, ptr %6, i32 0, i32 2
  %43 = load i32, ptr %42, align 8
  %44 = sub nsw i32 %43, %41
  store i32 %44, ptr %42, align 8
  br label %79

45:                                               ; preds = %35, %30
  %46 = load i32, ptr %5, align 4
  %47 = icmp ne i32 %46, -2
  br i1 %47, label %48, label %59

48:                                               ; preds = %45
  %49 = load i32, ptr %5, align 4
  %50 = and i32 %49, 131072
  %51 = icmp ne i32 %50, 0
  br i1 %51, label %52, label %59

52:                                               ; preds = %48
  %53 = getelementptr inbounds nuw %struct.tm, ptr %6, i32 0, i32 2
  store i32 0, ptr %53, align 8
  %54 = load i16, ptr %7, align 2
  %55 = sext i16 %54 to i32
  %56 = getelementptr inbounds nuw %struct.tm, ptr %6, i32 0, i32 3
  %57 = load i32, ptr %56, align 4
  %58 = sub nsw i32 %57, %55
  store i32 %58, ptr %56, align 4
  br label %78

59:                                               ; preds = %48, %45
  %60 = load i32, ptr %5, align 4
  %61 = icmp ne i32 %60, -2
  br i1 %61, label %62, label %74

62:                                               ; preds = %59
  %63 = load i32, ptr %5, align 4
  %64 = and i32 %63, 262144
  %65 = icmp ne i32 %64, 0
  br i1 %65, label %66, label %74

66:                                               ; preds = %62
  %67 = getelementptr inbounds nuw %struct.tm, ptr %6, i32 0, i32 2
  store i32 0, ptr %67, align 8
  %68 = getelementptr inbounds nuw %struct.tm, ptr %6, i32 0, i32 3
  store i32 1, ptr %68, align 4
  %69 = load i16, ptr %7, align 2
  %70 = sext i16 %69 to i32
  %71 = getelementptr inbounds nuw %struct.tm, ptr %6, i32 0, i32 4
  %72 = load i32, ptr %71, align 8
  %73 = sub nsw i32 %72, %70
  store i32 %73, ptr %71, align 8
  br label %77

74:                                               ; preds = %62, %59
  %75 = call ptr @__errno_location() #9
  store i32 22, ptr %75, align 4
  %76 = call i32 (ptr, ...) @slurm_error(ptr noundef @.str.28)
  store i64 0, ptr %3, align 8
  store i32 1, ptr %8, align 4
  br label %82

77:                                               ; preds = %66
  br label %78

78:                                               ; preds = %77, %52
  br label %79

79:                                               ; preds = %78, %39
  %80 = call i64 @slurm_mktime(ptr noundef %6)
  %81 = sub nsw i64 %80, 1
  store i64 %81, ptr %3, align 8
  store i32 1, ptr %8, align 4
  br label %82

82:                                               ; preds = %79, %74, %27, %20, %11
  call void @llvm.lifetime.end.p0(i64 2, ptr %7) #8
  call void @llvm.lifetime.end.p0(i64 56, ptr %6) #8
  %83 = load i64, ptr %3, align 8
  ret i64 %83
}