; Function Attrs: nounwind uwtable
define dso_local range(i64 -9223372036854775808, 9223372036854775807) i64 @archive_setup_end_time(i64 noundef %0, i32 noundef %1) local_unnamed_addr #0 {
  %3 = alloca i64, align 8
  %4 = alloca %struct.tm, align 8
  store i64 %0, ptr %3, align 8
  call void @llvm.lifetime.start.p0(i64 56, ptr nonnull %4) #12
  %5 = icmp eq i32 %1, -2
  br i1 %5, label %6, label %8

6:                                                ; preds = %2
  %7 = tail call i32 (ptr, ...) @slurm_error(ptr noundef nonnull @.str.25) #12
  br label %46

8:                                                ; preds = %2
  %sext = shl i32 %1, 16
  %9 = ashr exact i32 %sext, 16
  %10 = icmp slt i32 %9, 0
  br i1 %10, label %11, label %13

11:                                               ; preds = %8
  %12 = tail call i32 (ptr, ...) @slurm_error(ptr noundef nonnull @.str.26, i32 noundef %9) #12
  br label %46

13:                                               ; preds = %8
  %14 = call ptr @localtime_r(ptr noundef nonnull %3, ptr noundef nonnull %4) #12
  %.not = icmp eq ptr %14, null
  br i1 %.not, label %15, label %18

15:                                               ; preds = %13
  %16 = load i64, ptr %3, align 8
  %17 = call i32 (ptr, ...) @slurm_error(ptr noundef nonnull @.str.27, i64 noundef %16) #12
  br label %46

18:                                               ; preds = %13
  store i32 0, ptr %4, align 8
  %19 = getelementptr inbounds nuw i8, ptr %4, i64 4
  store i32 0, ptr %19, align 4
  %20 = and i32 %1, 65536
  %.not16 = icmp eq i32 %20, 0
  br i1 %.not16, label %25, label %21

21:                                               ; preds = %18
  %22 = getelementptr inbounds nuw i8, ptr %4, i64 8
  %23 = load i32, ptr %22, align 8
  %24 = sub nsw i32 %23, %9
  store i32 %24, ptr %22, align 8
  br label %43

25:                                               ; preds = %18
  %26 = and i32 %1, 131072
  %.not17 = icmp eq i32 %26, 0
  br i1 %.not17, label %32, label %27

27:                                               ; preds = %25
  %28 = getelementptr inbounds nuw i8, ptr %4, i64 8
  store i32 0, ptr %28, align 8
  %29 = getelementptr inbounds nuw i8, ptr %4, i64 12
  %30 = load i32, ptr %29, align 4
  %31 = sub nsw i32 %30, %9
  store i32 %31, ptr %29, align 4
  br label %43

32:                                               ; preds = %25
  %33 = and i32 %1, 262144
  %.not18 = icmp eq i32 %33, 0
  br i1 %.not18, label %40, label %34

34:                                               ; preds = %32
  %35 = getelementptr inbounds nuw i8, ptr %4, i64 8
  store i32 0, ptr %35, align 8
  %36 = getelementptr inbounds nuw i8, ptr %4, i64 12
  store i32 1, ptr %36, align 4
  %37 = getelementptr inbounds nuw i8, ptr %4, i64 16
  %38 = load i32, ptr %37, align 8
  %39 = sub nsw i32 %38, %9
  store i32 %39, ptr %37, align 8
  br label %43

40:                                               ; preds = %32
  %41 = tail call ptr @__errno_location() #13
  store i32 22, ptr %41, align 4
  %42 = call i32 (ptr, ...) @slurm_error(ptr noundef nonnull @.str.28) #12
  br label %46

43:                                               ; preds = %27, %34, %21
  %44 = call i64 @slurm_mktime(ptr noundef nonnull %4) #12
  %45 = add nsw i64 %44, -1
  br label %46

46:                                               ; preds = %43, %40, %15, %11, %6
  %.0 = phi i64 [ 0, %6 ], [ 0, %11 ], [ %45, %43 ], [ 0, %40 ], [ 0, %15 ]
  call void @llvm.lifetime.end.p0(i64 56, ptr nonnull %4) #12
  ret i64 %.0
}